libcpprest.so.2.10:_Z10_to_base64B5cxx11PKhm
libcpprest.so.2.10:_Z12_from_base64RKNSt7__cxx1112basic_stringIcSt11char_traitsIcESaIcEEE
libcpprest.so.2.10:_Z14_finish_createiPN11Concurrency7streams7details20_filestream_callbackESt13_Ios_Openmodei
libcpprest.so.2.10:_Z14get_open_flagsSt13_Ios_Openmode
libcpprest.so.2.10:_Z16_fill_buffer_fsbPN11Concurrency7streams7details15_file_info_implEPNS1_20_filestream_callbackEmm
libcpprest.so.2.10:_Z16_read_file_asyncPN11Concurrency7streams7details15_file_info_implEPNS1_20_filestream_callbackEPvmm
libcpprest.so.2.10:_Z17_write_file_asyncPN11Concurrency7streams7details15_file_info_implEPNS1_20_filestream_callbackEPKvmm
libcpprest.so.2.10:_ZN3web10websockets6client23websocket_client_config14set_user_agentERKNSt7__cxx1112basic_stringIcSt11char_traitsIcESaIcEEE
libcpprest.so.2.10:_ZN3web10websockets6client23websocket_client_config15add_subprotocolERKNSt7__cxx1112basic_stringIcSt11char_traitsIcESaIcEEE
libcpprest.so.2.10:_ZN3web10websockets6client25websocket_callback_clientC1ENS1_23websocket_client_configE
libcpprest.so.2.10:_ZN3web10websockets6client25websocket_callback_clientC1Ev
libcpprest.so.2.10:_ZN3web10websockets6client25websocket_callback_clientC2ENS1_23websocket_client_configE
libcpprest.so.2.10:_ZN3web10websockets6client25websocket_callback_clientC2Ev
libcpprest.so.2.10:_ZN3web10websockets6client7details26websocket_client_task_impl11set_handlerEv
libcpprest.so.2.10:_ZN3web10websockets6client7details26websocket_client_task_impl30close_pending_tasks_with_errorERKNS1_19websocket_exceptionE
libcpprest.so.2.10:_ZN3web10websockets6client7details26websocket_client_task_impl7receiveEv
libcpprest.so.2.10:_ZN3web10websockets6client7details26websocket_client_task_implC1ENS1_23websocket_client_configE
libcpprest.so.2.10:_ZN3web10websockets6client7details26websocket_client_task_implC2ENS1_23websocket_client_configE
libcpprest.so.2.10:_ZN3web10websockets6client7details26websocket_client_task_implD0Ev
libcpprest.so.2.10:_ZN3web10websockets6client7details26websocket_client_task_implD1Ev
libcpprest.so.2.10:_ZN3web10websockets6client7details26websocket_client_task_implD2Ev
libcpprest.so.2.10:_ZN3web11uri_builder11append_pathERKNSt7__cxx1112basic_stringIcSt11char_traitsIcESaIcEEEb
libcpprest.so.2.10:_ZN3web11uri_builder12append_queryERKNSt7__cxx1112basic_stringIcSt11char_traitsIcESaIcEEEb
libcpprest.so.2.10:_ZN3web11uri_builder15append_path_rawERKNSt7__cxx1112basic_stringIcSt11char_traitsIcESaIcEEEb
libcpprest.so.2.10:_ZN3web11uri_builder24append_query_encode_implERKNSt7__cxx1112basic_stringIcSt11char_traitsIcESaIcEEES8_
libcpprest.so.2.10:_ZN3web11uri_builder27append_query_no_encode_implERKNSt7__cxx1112basic_stringIcSt11char_traitsIcESaIcEEES8_
libcpprest.so.2.10:_ZN3web11uri_builder6appendERKNS_3uriE
libcpprest.so.2.10:_ZN3web11uri_builder8is_validEv
libcpprest.so.2.10:_ZN3web11uri_builder8set_portERKNSt7__cxx1112basic_stringIcSt11char_traitsIcESaIcEEE
libcpprest.so.2.10:_ZN3web3uri10encode_uriERKNSt7__cxx1112basic_stringIcSt11char_traitsIcESaIcEEENS0_10components9componentE
libcpprest.so.2.10:_ZN3web3uri10split_pathERKNSt7__cxx1112basic_stringIcSt11char_traitsIcESaIcEEE
libcpprest.so.2.10:_ZN3web3uri11split_queryERKNSt7__cxx1112basic_stringIcSt11char_traitsIcESaIcEEE
libcpprest.so.2.10:_ZN3web3uri17encode_query_implERKNSt7__cxx1112basic_stringIcSt11char_traitsIcESaIcEEE
libcpprest.so.2.10:_ZN3web3uri18encode_data_stringERKNSt7__cxx1112basic_stringIcSt11char_traitsIcESaIcEEE
libcpprest.so.2.10:_ZN3web3uri6decodeERKNSt7__cxx1112basic_stringIcSt11char_traitsIcESaIcEEE
libcpprest.so.2.10:_ZN3web3uri8validateERKNSt7__cxx1112basic_stringIcSt11char_traitsIcESaIcEEE
libcpprest.so.2.10:_ZN3web3uriC1EPKc
libcpprest.so.2.10:_ZN3web3uriC1ERKNS_7details14uri_componentsE
libcpprest.so.2.10:_ZN3web3uriC1ERKNSt7__cxx1112basic_stringIcSt11char_traitsIcESaIcEEE
libcpprest.so.2.10:_ZN3web3uriC2EPKc
libcpprest.so.2.10:_ZN3web3uriC2ERKNS_7details14uri_componentsE
libcpprest.so.2.10:_ZN3web3uriC2ERKNSt7__cxx1112basic_stringIcSt11char_traitsIcESaIcEEE
libcpprest.so.2.10:_ZN3web4http11compression21make_compress_factoryERKNSt7__cxx1112basic_stringIcSt11char_traitsIcESaIcEEESt8functionIFSt10unique_ptrINS1_17compress_providerESt14default_deleteISC_EEvEE
libcpprest.so.2.10:_ZN3web4http11compression23make_decompress_factoryERKNSt7__cxx1112basic_stringIcSt11char_traitsIcESaIcEEEtSt8functionIFSt10unique_ptrINS1_19decompress_providerESt14default_deleteISC_EEvEE
libcpprest.so.2.10:_ZN3web4http11compression7builtin15make_compressorERKNSt7__cxx1112basic_stringIcSt11char_traitsIcESaIcEEE
libcpprest.so.2.10:_ZN3web4http11compression7builtin17make_decompressorERKNSt7__cxx1112basic_stringIcSt11char_traitsIcESaIcEEE
libcpprest.so.2.10:_ZN3web4http11compression7builtin20get_compress_factoryERKNSt7__cxx1112basic_stringIcSt11char_traitsIcESaIcEEE
libcpprest.so.2.10:_ZN3web4http11compression7builtin20make_gzip_compressorEiiii
libcpprest.so.2.10:_ZN3web4http11compression7builtin22get_decompress_factoryERKNSt7__cxx1112basic_stringIcSt11char_traitsIcESaIcEEE
libcpprest.so.2.10:_ZN3web4http11compression7builtin22make_brotli_compressorEjjjjjj
libcpprest.so.2.10:_ZN3web4http11compression7builtin23make_deflate_compressorEiiii
libcpprest.so.2.10:_ZN3web4http11compression7builtin9algorithm9supportedERKNSt7__cxx1112basic_stringIcSt11char_traitsIcESaIcEEE
libcpprest.so.2.10:_ZN3web4http11compression7builtin9supportedEv
libcpprest.so.2.10:_ZN3web4http11compression7details22build_supported_headerB5cxx11ENS2_12header_typesERKSt6vectorISt10shared_ptrINS1_18decompress_factoryEESaIS7_EE
libcpprest.so.2.10:_ZN3web4http11compression7details26get_compressor_from_headerERKNSt7__cxx1112basic_stringIcSt11char_traitsIcESaIcEEENS2_12header_typesERKSt6vectorISt10shared_ptrINS1_16compress_factoryEESaISF_EE
libcpprest.so.2.10:_ZN3web4http11compression7details28get_decompressor_from_headerERKNSt7__cxx1112basic_stringIcSt11char_traitsIcESaIcEEENS2_12header_typesERKSt6vectorISt10shared_ptrINS1_18decompress_factoryEESaISF_EE
libcpprest.so.2.10:_ZN3web4http11compression7details7builtin24get_decompress_factoriesEv
libcpprest.so.2.10:_ZN3web4http12experimental7details15http_server_api10server_apiEv
libcpprest.so.2.10:_ZN3web4http12experimental7details15http_server_api12has_listenerEv
libcpprest.so.2.10:_ZN3web4http12experimental7details15http_server_api17register_listenerEPNS1_8listener7details18http_listener_implE
libcpprest.so.2.10:_ZN3web4http12experimental7details15http_server_api19register_server_apiESt10unique_ptrINS2_11http_serverESt14default_deleteIS5_EE
libcpprest.so.2.10:_ZN3web4http12experimental7details15http_server_api19unregister_listenerEPNS1_8listener7details18http_listener_implE
libcpprest.so.2.10:_ZN3web4http12experimental7details15http_server_api21unregister_server_apiEv
libcpprest.so.2.10:_ZN3web4http12experimental7details15http_server_api26unsafe_register_server_apiESt10unique_ptrINS2_11http_serverESt14default_deleteIS5_EE
libcpprest.so.2.10:_ZN3web4http12experimental7details21make_http_asio_serverEv
libcpprest.so.2.10:_ZN3web4http12experimental8listener7details18http_listener_impl12handle_traceENS0_12http_requestE
libcpprest.so.2.10:_ZN3web4http12experimental8listener7details18http_listener_impl14handle_optionsENS0_12http_requestE
libcpprest.so.2.10:_ZN3web4http12experimental8listener7details18http_listener_impl14handle_requestENS0_12http_requestE
libcpprest.so.2.10:_ZN3web4http12experimental8listener7details18http_listener_impl4openEv
libcpprest.so.2.10:_ZN3web4http12experimental8listener7details18http_listener_impl5closeEv
libcpprest.so.2.10:_ZN3web4http12experimental8listener7details18http_listener_implC1ENS_3uriE
libcpprest.so.2.10:_ZN3web4http12experimental8listener7details18http_listener_implC1ENS_3uriENS2_20http_listener_configE
libcpprest.so.2.10:_ZN3web4http12experimental8listener7details18http_listener_implC2ENS_3uriE
libcpprest.so.2.10:_ZN3web4http12experimental8listener7details18http_listener_implC2ENS_3uriENS2_20http_listener_configE
libcpprest.so.2.10:_ZN3web4http12http_headers16set_content_typeENSt7__cxx1112basic_stringIcSt11char_traitsIcESaIcEEE
libcpprest.so.2.10:_ZN3web4http12http_headers17set_cache_controlENSt7__cxx1112basic_stringIcSt11char_traitsIcESaIcEEE
libcpprest.so.2.10:_ZN3web4http12http_headers18set_content_lengthEm
libcpprest.so.2.10:_ZN3web4http12http_headers8set_dateERKN7utility8datetimeE
libcpprest.so.2.10:_ZN3web4http12http_request24set_decompress_factoriesEv
libcpprest.so.2.10:_ZN3web4http12http_version11from_stringERKNSt7__cxx1112basic_stringIcSt11char_traitsIcESaIcEEE
libcpprest.so.2.10:_ZN3web4http6client11http_client11add_handlerERKSt10shared_ptrINS0_19http_pipeline_stageEE
libcpprest.so.2.10:_ZN3web4http6client11http_client11add_handlerERKSt8functionIFN4pplx4taskINS0_13http_responseEEENS0_12http_requestESt10shared_ptrINS0_19http_pipeline_stageEEEE
libcpprest.so.2.10:_ZN3web4http6client11http_client7requestENS0_12http_requestERKN4pplx18cancellation_tokenE
libcpprest.so.2.10:_ZN3web4http6client11http_clientC1ERKNS_3uriE
libcpprest.so.2.10:_ZN3web4http6client11http_clientC1ERKNS_3uriERKNS1_18http_client_configE
libcpprest.so.2.10:_ZN3web4http6client11http_clientC2ERKNS_3uriE
libcpprest.so.2.10:_ZN3web4http6client11http_clientC2ERKNS_3uriERKNS1_18http_client_configE
libcpprest.so.2.10:_ZN3web4http6client11http_clientD1Ev
libcpprest.so.2.10:_ZN3web4http6client11http_clientD2Ev
libcpprest.so.2.10:_ZN3web4http6client7details11asio_client12send_requestERKSt10shared_ptrINS2_15request_contextEE
libcpprest.so.2.10:_ZN3web4http6client7details11asio_client9propagateENS0_12http_requestE
libcpprest.so.2.10:_ZN3web4http6client7details15request_context12report_errorEmRKNSt7__cxx1112basic_stringIcSt11char_traitsIcESaIcEEE
libcpprest.so.2.10:_ZN3web4http6client7details15request_context15_get_readbufferEv
libcpprest.so.2.10:_ZN3web4http6client7details15request_context16_get_writebufferEv
libcpprest.so.2.10:_ZN3web4http6client7details15request_context16complete_headersEv
libcpprest.so.2.10:_ZN3web4http6client7details15request_context16complete_requestEm
libcpprest.so.2.10:_ZN3web4http6client7details15request_context16report_exceptionENSt15__exception_ptr13exception_ptrE
libcpprest.so.2.10:_ZN3web4http6client7details15request_context18handle_compressionEv
libcpprest.so.2.10:_ZN3web4http6client7details15request_contextC1ERKSt10shared_ptrINS2_25_http_client_communicatorEERKNS0_12http_requestE
libcpprest.so.2.10:_ZN3web4http6client7details15request_contextC2ERKSt10shared_ptrINS2_25_http_client_communicatorEERKNS0_12http_requestE
libcpprest.so.2.10:_ZN3web4http6client7details25_http_client_communicator14finish_requestEv
libcpprest.so.2.10:_ZN3web4http6client7details25_http_client_communicator18async_send_requestERKSt10shared_ptrINS2_15request_contextEE
libcpprest.so.2.10:_ZN3web4http6client7details25_http_client_communicator23async_send_request_implERKSt10shared_ptrINS2_15request_contextEE
libcpprest.so.2.10:_ZN3web4http6client7details25_http_client_communicatorC1EONS_3uriEONS1_18http_client_configE
libcpprest.so.2.10:_ZN3web4http6client7details25_http_client_communicatorC2EONS_3uriEONS1_18http_client_configE
libcpprest.so.2.10:_ZN3web4http6client7details36create_platform_final_pipeline_stageEONS_3uriEONS1_18http_client_configE
libcpprest.so.2.10:_ZN3web4http6oauth112experimental13oauth1_config10_hmac_sha1ERKNSt7__cxx1112basic_stringIcSt11char_traitsIcESaIcEEESB_
libcpprest.so.2.10:_ZN3web4http6oauth112experimental13oauth1_config14_request_tokenENS1_7details12oauth1_stateEb
libcpprest.so.2.10:_ZN3web4http6oauth112experimental13oauth1_config21_authenticate_requestERNS0_12http_requestENS1_7details12oauth1_stateE
libcpprest.so.2.10:_ZN3web4http6oauth112experimental13oauth1_config22_build_base_string_uriB5cxx11ERKNS_3uriE
libcpprest.so.2.10:_ZN3web4http6oauth112experimental13oauth1_config23build_authorization_uriB5cxx11Ev
libcpprest.so.2.10:_ZN3web4http6oauth112experimental13oauth1_config25token_from_redirected_uriERKNS_3uriE
libcpprest.so.2.10:_ZN3web4http6oauth212experimental13oauth2_config14_request_tokenERNS_11uri_builderE
libcpprest.so.2.10:_ZN3web4http6oauth212experimental13oauth2_config22_parse_token_from_jsonERKNS_4json5valueE
libcpprest.so.2.10:_ZN3web4http6oauth212experimental13oauth2_config23build_authorization_uriB5cxx11Eb
libcpprest.so.2.10:_ZN3web4http6oauth212experimental13oauth2_config25token_from_redirected_uriERKNS_3uriE
libcpprest.so.2.10:_ZN3web4http7details13_http_request11_reply_implENS0_13http_responseE
libcpprest.so.2.10:_ZN3web4http7details13_http_request15set_request_uriERKNS_3uriE
libcpprest.so.2.10:_ZN3web4http7details13_http_request21_reply_if_not_alreadyEt
libcpprest.so.2.10:_ZN3web4http7details13_http_request5replyERKNS0_13http_responseE
libcpprest.so.2.10:_ZN3web4http7details13_http_requestC1ENSt7__cxx1112basic_stringIcSt11char_traitsIcESaIcEEE
libcpprest.so.2.10:_ZN3web4http7details13_http_requestC1ESt10unique_ptrINS1_20_http_server_contextESt14default_deleteIS4_EE
libcpprest.so.2.10:_ZN3web4http7details13http_msg_base13_extract_jsonEb
libcpprest.so.2.10:_ZN3web4http7details13http_msg_base14extract_stringB5cxx11Eb
libcpprest.so.2.10:_ZN3web4http7details13http_msg_base15_extract_vectorEv
libcpprest.so.2.10:_ZN3web4http7details13http_msg_base18_get_stream_lengthEv
libcpprest.so.2.10:_ZN3web4http7details13http_msg_base18extract_utf8stringB5cxx11Eb
libcpprest.so.2.10:_ZN3web4http7details13http_msg_base19_get_content_lengthEb
libcpprest.so.2.10:_ZN3web4http7details13http_msg_base19_get_content_lengthEv
libcpprest.so.2.10:_ZN3web4http7details13http_msg_base19extract_utf16stringB5cxx11Eb
libcpprest.so.2.10:_ZN3web4http7details13http_msg_base24_prepare_to_receive_dataEv
libcpprest.so.2.10:_ZN3web4http7details13http_msg_base28parse_and_check_content_typeEbRKSt8functionIFbRKNSt7__cxx1112basic_stringIcSt11char_traitsIcESaIcEEEEE
libcpprest.so.2.10:_ZN3web4http7details13http_msg_base39_get_content_length_and_set_compressionEv
libcpprest.so.2.10:_ZN3web4http7details13http_msg_base8set_bodyERKN11Concurrency7streams13basic_istreamIhEERKNSt7__cxx1112basic_stringIDsSt11char_traitsIDsESaIDsEEE
libcpprest.so.2.10:_ZN3web4http7details13http_msg_base8set_bodyERKN11Concurrency7streams13basic_istreamIhEERKNSt7__cxx1112basic_stringIcSt11char_traitsIcESaIcEEE
libcpprest.so.2.10:_ZN3web4http7details13http_msg_base8set_bodyERKN11Concurrency7streams13basic_istreamIhEEmRKNSt7__cxx1112basic_stringIDsSt11char_traitsIDsESaIDsEEE
libcpprest.so.2.10:_ZN3web4http7details13http_msg_base8set_bodyERKN11Concurrency7streams13basic_istreamIhEEmRKNSt7__cxx1112basic_stringIcSt11char_traitsIcESaIcEEE
libcpprest.so.2.10:_ZN3web4http7details13http_msg_base9_completeEmRKNSt15__exception_ptr13exception_ptrE
libcpprest.so.2.10:_ZN3web4http7details13http_msg_baseC1Ev
libcpprest.so.2.10:_ZN3web4http7details13http_msg_baseC2Ev
libcpprest.so.2.10:_ZN3web4http7details15validate_methodERKNSt7__cxx1112basic_stringIcSt11char_traitsIcESaIcEEE
libcpprest.so.2.10:_ZN3web4http7details16chunked_encoding22add_chunked_delimitersEPhmm
libcpprest.so.2.10:_ZN3web4http7details20flatten_http_headersB5cxx11ERKNS0_12http_headersE
libcpprest.so.2.10:_ZN3web4http7details20parse_headers_stringEPcRNS0_12http_headersE
libcpprest.so.2.10:_ZN3web4http7details25get_default_reason_phraseB5cxx11Et
libcpprest.so.2.10:_ZN3web4json25keep_object_element_orderEb
libcpprest.so.2.10:_ZN3web4json5value2atERKNSt7__cxx1112basic_stringIcSt11char_traitsIcESaIcEEE
libcpprest.so.2.10:_ZN3web4json5value2atEm
libcpprest.so.2.10:_ZN3web4json5value4nullEv
libcpprest.so.2.10:_ZN3web4json5value5arrayESt6vectorIS1_SaIS1_EE
libcpprest.so.2.10:_ZN3web4json5value5arrayEm
libcpprest.so.2.10:_ZN3web4json5value5arrayEv
libcpprest.so.2.10:_ZN3web4json5value5eraseERKNSt7__cxx1112basic_stringIcSt11char_traitsIcESaIcEEE
libcpprest.so.2.10:_ZN3web4json5value5eraseEm
libcpprest.so.2.10:_ZN3web4json5value5parseERKNSt7__cxx1112basic_stringIcSt11char_traitsIcESaIcEEE
libcpprest.so.2.10:_ZN3web4json5value5parseERKNSt7__cxx1112basic_stringIcSt11char_traitsIcESaIcEEERSt10error_code
libcpprest.so.2.10:_ZN3web4json5value5parseERSi
libcpprest.so.2.10:_ZN3web4json5value5parseERSiRSt10error_code
libcpprest.so.2.10:_ZN3web4json5value6numberEd
libcpprest.so.2.10:_ZN3web4json5value6numberEi
libcpprest.so.2.10:_ZN3web4json5value6numberEj
libcpprest.so.2.10:_ZN3web4json5value6numberEl
libcpprest.so.2.10:_ZN3web4json5value6numberEm
libcpprest.so.2.10:_ZN3web4json5value6objectESt6vectorISt4pairINSt7__cxx1112basic_stringIcSt11char_traitsIcESaIcEEES1_ESaISA_EEb
libcpprest.so.2.10:_ZN3web4json5value6objectEb
libcpprest.so.2.10:_ZN3web4json5value6stringENSt7__cxx1112basic_stringIcSt11char_traitsIcESaIcEEE
libcpprest.so.2.10:_ZN3web4json5value6stringENSt7__cxx1112basic_stringIcSt11char_traitsIcESaIcEEEb
libcpprest.so.2.10:_ZN3web4json5value7booleanEb
libcpprest.so.2.10:_ZN3web4json5value8as_arrayEv
libcpprest.so.2.10:_ZN3web4json5value9as_objectEv
libcpprest.so.2.10:_ZN3web4json5valueC1ENSt7__cxx1112basic_stringIcSt11char_traitsIcESaIcEEE
libcpprest.so.2.10:_ZN3web4json5valueC1ENSt7__cxx1112basic_stringIcSt11char_traitsIcESaIcEEEb
libcpprest.so.2.10:_ZN3web4json5valueC1EOS1_
libcpprest.so.2.10:_ZN3web4json5valueC1EPKc
libcpprest.so.2.10:_ZN3web4json5valueC1EPKcb
libcpprest.so.2.10:_ZN3web4json5valueC1ERKS1_
libcpprest.so.2.10:_ZN3web4json5valueC1Eb
libcpprest.so.2.10:_ZN3web4json5valueC1Ed
libcpprest.so.2.10:_ZN3web4json5valueC1Ei
libcpprest.so.2.10:_ZN3web4json5valueC1Ej
libcpprest.so.2.10:_ZN3web4json5valueC1El
libcpprest.so.2.10:_ZN3web4json5valueC1Em
libcpprest.so.2.10:_ZN3web4json5valueC1Ev
libcpprest.so.2.10:_ZN3web4json5valueC2ENSt7__cxx1112basic_stringIcSt11char_traitsIcESaIcEEE
libcpprest.so.2.10:_ZN3web4json5valueC2ENSt7__cxx1112basic_stringIcSt11char_traitsIcESaIcEEEb
libcpprest.so.2.10:_ZN3web4json5valueC2EOS1_
libcpprest.so.2.10:_ZN3web4json5valueC2EPKc
libcpprest.so.2.10:_ZN3web4json5valueC2EPKcb
libcpprest.so.2.10:_ZN3web4json5valueC2ERKS1_
libcpprest.so.2.10:_ZN3web4json5valueC2Eb
libcpprest.so.2.10:_ZN3web4json5valueC2Ed
libcpprest.so.2.10:_ZN3web4json5valueC2Ei
libcpprest.so.2.10:_ZN3web4json5valueC2Ej
libcpprest.so.2.10:_ZN3web4json5valueC2El
libcpprest.so.2.10:_ZN3web4json5valueC2Em
libcpprest.so.2.10:_ZN3web4json5valueC2Ev
libcpprest.so.2.10:_ZN3web4json5valueaSEOS1_
libcpprest.so.2.10:_ZN3web4json5valueaSERKS1_
libcpprest.so.2.10:_ZN3web4json5valueixERKNSt7__cxx1112basic_stringIcSt11char_traitsIcESaIcEEE
libcpprest.so.2.10:_ZN3web4json5valueixEm
libcpprest.so.2.10:_ZN3web4json7details13format_stringERKNSt7__cxx1112basic_stringIcSt11char_traitsIcESaIcEEERS7_
libcpprest.so.2.10:_ZN3web4json7details19json_error_categoryEv
libcpprest.so.2.10:_ZN3web4json7details32convert_append_unicode_code_unitERNS1_11JSON_ParserIDsE5TokenEDs
libcpprest.so.2.10:_ZN3web4json7details32convert_append_unicode_code_unitERNS1_11JSON_ParserIDsE5TokenENSt7__cxx1112basic_stringIDsSt11char_traitsIDsESaIDsEEE
libcpprest.so.2.10:_ZN3web4json7details32convert_append_unicode_code_unitERNS1_11JSON_ParserIcE5TokenEDs
libcpprest.so.2.10:_ZN3web4json7details32convert_append_unicode_code_unitERNS1_11JSON_ParserIcE5TokenENSt7__cxx1112basic_stringIDsSt11char_traitsIDsESaIDsEEE
libcpprest.so.2.10:_ZN3web4json7details7_Object5indexERKNSt7__cxx1112basic_stringIcSt11char_traitsIcESaIcEEE
libcpprest.so.2.10:_ZN3web4json7details7_String16has_escape_charsERKS2_
libcpprest.so.2.10:_ZN3web4jsonlsERSoRKNS0_5valueE
libcpprest.so.2.10:_ZN3web4jsonrsERSiRNS0_5valueE
libcpprest.so.2.10:_ZN3web7details14uri_components4joinB5cxx11Ev
libcpprest.so.2.10:_ZN4pplx21get_ambient_schedulerEv
libcpprest.so.2.10:_ZN4pplx21set_ambient_schedulerESt10shared_ptrINS_19scheduler_interfaceEE
libcpprest.so.2.10:_ZN4pplx7details15linux_scheduler8scheduleEPFvPvES2_
libcpprest.so.2.10:_ZN4pplx7details8platform14YieldExecutionEv
libcpprest.so.2.10:_ZN4pplx7details8platform18GetCurrentThreadIdEv
libcpprest.so.2.10:_ZN7utility11conversions11from_base64ERKNSt7__cxx1112basic_stringIcSt11char_traitsIcESaIcEEE
libcpprest.so.2.10:_ZN7utility11conversions11to_string_tEONSt7__cxx1112basic_stringIDsSt11char_traitsIDsESaIDsEEE
libcpprest.so.2.10:_ZN7utility11conversions11to_string_tERKNSt7__cxx1112basic_stringIDsSt11char_traitsIDsESaIDsEEE
libcpprest.so.2.10:_ZN7utility11conversions13to_utf8stringERKNSt7__cxx1112basic_stringIDsSt11char_traitsIDsESaIDsEEE
libcpprest.so.2.10:_ZN7utility11conversions13utf16_to_utf8ERKNSt7__cxx1112basic_stringIDsSt11char_traitsIDsESaIDsEEE
libcpprest.so.2.10:_ZN7utility11conversions13utf8_to_utf16ERKNSt7__cxx1112basic_stringIcSt11char_traitsIcESaIcEEE
libcpprest.so.2.10:_ZN7utility11conversions14latin1_to_utf8ERKNSt7__cxx1112basic_stringIcSt11char_traitsIcESaIcEEE
libcpprest.so.2.10:_ZN7utility11conversions14to_utf16stringERKNSt7__cxx1112basic_stringIcSt11char_traitsIcESaIcEEE
libcpprest.so.2.10:_ZN7utility11conversions15latin1_to_utf16ERKNSt7__cxx1112basic_stringIcSt11char_traitsIcESaIcEEE
libcpprest.so.2.10:_ZN7utility11conversions16usascii_to_utf16ERKNSt7__cxx1112basic_stringIcSt11char_traitsIcESaIcEEE
libcpprest.so.2.10:_ZN7utility11conversions9to_base64B5cxx11ERKSt6vectorIhSaIhEE
libcpprest.so.2.10:_ZN7utility11conversions9to_base64B5cxx11Em
libcpprest.so.2.10:_ZN7utility15nonce_generator8generateB5cxx11Ev
libcpprest.so.2.10:_ZN7utility7details10str_iequalERKNSt7__cxx1112basic_stringIcSt11char_traitsIcESaIcEEES8_
libcpprest.so.2.10:_ZN7utility7details10str_iequalERKNSt7__cxx1112basic_stringIwSt11char_traitsIwESaIwEEES8_
libcpprest.so.2.10:_ZN7utility7details14linux_categoryEv
libcpprest.so.2.10:_ZN7utility7details15inplace_tolowerERNSt7__cxx1112basic_stringIcSt11char_traitsIcESaIcEEE
libcpprest.so.2.10:_ZN7utility7details15inplace_tolowerERNSt7__cxx1112basic_stringIwSt11char_traitsIwESaIwEEE
libcpprest.so.2.10:_ZN7utility7details17platform_categoryEv
libcpprest.so.2.10:_ZN7utility7details22scoped_c_thread_locale8c_localeEv
libcpprest.so.2.10:_ZN7utility7details22scoped_c_thread_localeC1Ev
libcpprest.so.2.10:_ZN7utility7details22scoped_c_thread_localeC2Ev
libcpprest.so.2.10:_ZN7utility7details22scoped_c_thread_localeD1Ev
libcpprest.so.2.10:_ZN7utility7details22scoped_c_thread_localeD2Ev
libcpprest.so.2.10:_ZN7utility7details9str_ilessERKNSt7__cxx1112basic_stringIcSt11char_traitsIcESaIcEEES8_
libcpprest.so.2.10:_ZN7utility7details9str_ilessERKNSt7__cxx1112basic_stringIwSt11char_traitsIwESaIwEEES8_
libcpprest.so.2.10:_ZN7utility8datetime11from_stringERKNSt7__cxx1112basic_stringIcSt11char_traitsIcESaIcEEENS0_11date_formatE
libcpprest.so.2.10:_ZN7utility8datetime7utc_nowEv
libcpprest.so.2.10:_ZN7utility8timespan23seconds_to_xml_durationB5cxx11ENSt6chrono8durationIlSt5ratioILl1ELl1EEEE
libcpprest.so.2.10:_ZN7utility8timespan23xml_duration_to_secondsERKNSt7__cxx1112basic_stringIcSt11char_traitsIcESaIcEEE
libcpprest.so.2.10:_ZN9crossplat10threadpool15shared_instanceEv
libcpprest.so.2.10:_ZN9crossplat10threadpool23initialize_with_threadsEm
libcpprest.so.2.10:_ZN9crossplat10threadpool9constructEm
libcpprest.so.2.10:_ZNK3web10websockets6client23websocket_client_config12subprotocolsB5cxx11Ev
libcpprest.so.2.10:_ZNK3web10websockets6client26websocket_incoming_message14extract_stringB5cxx11Ev
libcpprest.so.2.10:_ZNK3web11uri_builder6to_uriEv
libcpprest.so.2.10:_ZNK3web11uri_builder9to_stringB5cxx11Ev
libcpprest.so.2.10:_ZNK3web3uri11resolve_uriERKNSt7__cxx1112basic_stringIcSt11char_traitsIcESaIcEEE
libcpprest.so.2.10:_ZNK3web3uri8resourceEv
libcpprest.so.2.10:_ZNK3web3uri9authorityEv
libcpprest.so.2.10:_ZNK3web3urieqERKS0_
libcpprest.so.2.10:_ZNK3web4http12experimental8listener7details18http_listener_impl21get_supported_methodsB5cxx11Ev
libcpprest.so.2.10:_ZNK3web4http12http_headers12content_typeB5cxx11Ev
libcpprest.so.2.10:_ZNK3web4http12http_headers13cache_controlB5cxx11Ev
libcpprest.so.2.10:_ZNK3web4http12http_headers14content_lengthEv
libcpprest.so.2.10:_ZNK3web4http12http_headers4dateB5cxx11Ev
libcpprest.so.2.10:_ZNK3web4http12http_version13to_utf8stringB5cxx11Ev
libcpprest.so.2.10:_ZNK3web4http6client11http_client13client_configEv
libcpprest.so.2.10:_ZNK3web4http6client11http_client8base_uriEv
libcpprest.so.2.10:_ZNK3web4http6client7details15request_context22get_compression_headerB5cxx11Ev
libcpprest.so.2.10:_ZNK3web4http6client7details25_http_client_communicator13client_configEv
libcpprest.so.2.10:_ZNK3web4http6client7details25_http_client_communicator8base_uriEv
libcpprest.so.2.10:_ZNK3web4http6oauth112experimental13oauth1_config16_build_signatureB5cxx11ENS0_12http_requestENS1_7details12oauth1_stateE
libcpprest.so.2.10:_ZNK3web4http6oauth112experimental13oauth1_config28_build_normalized_parametersB5cxx11ENS_3uriERKNS1_7details12oauth1_stateE
libcpprest.so.2.10:_ZNK3web4http6oauth112experimental13oauth1_config28_build_signature_base_stringB5cxx11ENS0_12http_requestENS1_7details12oauth1_stateE
libcpprest.so.2.10:_ZNK3web4http6oauth112experimental13oauth1_config5tokenEv
libcpprest.so.2.10:_ZNK3web4http7details13_http_request12absolute_uriEv
libcpprest.so.2.10:_ZNK3web4http7details13_http_request12relative_uriEv
libcpprest.so.2.10:_ZNK3web4http7details13_http_request9to_stringB5cxx11Ev
libcpprest.so.2.10:_ZNK3web4http7details13http_msg_base9to_stringB5cxx11Ev
libcpprest.so.2.10:_ZNK3web4http7details14_http_response9to_stringB5cxx11Ev
libcpprest.so.2.10:_ZNK3web4json5value10as_integerEv
libcpprest.so.2.10:_ZNK3web4json5value10is_integerEv
libcpprest.so.2.10:_ZNK3web4json5value15has_array_fieldERKNSt7__cxx1112basic_stringIcSt11char_traitsIcESaIcEEE
libcpprest.so.2.10:_ZNK3web4json5value16has_double_fieldERKNSt7__cxx1112basic_stringIcSt11char_traitsIcESaIcEEE
libcpprest.so.2.10:_ZNK3web4json5value16has_number_fieldERKNSt7__cxx1112basic_stringIcSt11char_traitsIcESaIcEEE
libcpprest.so.2.10:_ZNK3web4json5value16has_object_fieldERKNSt7__cxx1112basic_stringIcSt11char_traitsIcESaIcEEE
libcpprest.so.2.10:_ZNK3web4json5value16has_string_fieldERKNSt7__cxx1112basic_stringIcSt11char_traitsIcESaIcEEE
libcpprest.so.2.10:_ZNK3web4json5value17has_boolean_fieldERKNSt7__cxx1112basic_stringIcSt11char_traitsIcESaIcEEE
libcpprest.so.2.10:_ZNK3web4json5value17has_integer_fieldERKNSt7__cxx1112basic_stringIcSt11char_traitsIcESaIcEEE
libcpprest.so.2.10:_ZNK3web4json5value2atERKNSt7__cxx1112basic_stringIcSt11char_traitsIcESaIcEEE
libcpprest.so.2.10:_ZNK3web4json5value2atEm
libcpprest.so.2.10:_ZNK3web4json5value4typeEv
libcpprest.so.2.10:_ZNK3web4json5value6formatERNSt7__cxx1112basic_stringIcSt11char_traitsIcESaIcEEE
libcpprest.so.2.10:_ZNK3web4json5value7as_boolEv
libcpprest.so.2.10:_ZNK3web4json5value8as_arrayEv
libcpprest.so.2.10:_ZNK3web4json5value9as_doubleEv
libcpprest.so.2.10:_ZNK3web4json5value9as_numberEv
libcpprest.so.2.10:_ZNK3web4json5value9as_objectEv
libcpprest.so.2.10:_ZNK3web4json5value9as_stringB5cxx11Ev
libcpprest.so.2.10:_ZNK3web4json5value9is_doubleEv
libcpprest.so.2.10:_ZNK3web4json5value9serializeB5cxx11Ev
libcpprest.so.2.10:_ZNK3web4json5value9serializeERSo
libcpprest.so.2.10:_ZNK3web4json5value9to_stringB5cxx11Ev
libcpprest.so.2.10:_ZNK3web4json5valueeqERKS1_
libcpprest.so.2.10:_ZNK3web4json6number8is_int32Ev
libcpprest.so.2.10:_ZNK3web4json6number8is_int64Ev
libcpprest.so.2.10:_ZNK3web4json6number9is_uint32Ev
libcpprest.so.2.10:_ZNK3web4json7details7_Number6formatERNSt7__cxx1112basic_stringIcSt11char_traitsIcESaIcEEE
libcpprest.so.2.10:_ZNK3web4json7details7_Object9has_fieldERKNSt7__cxx1112basic_stringIcSt11char_traitsIcESaIcEEE
libcpprest.so.2.10:_ZNK3web4json7details7_String6formatERNSt7__cxx1112basic_stringIcSt11char_traitsIcESaIcEEE
libcpprest.so.2.10:_ZNK3web4json7details7_String9as_stringB5cxx11Ev
libcpprest.so.2.10:_ZNK3web7details19zero_memory_deleterclEPNSt7__cxx1112basic_stringIcSt11char_traitsIcESaIcEEE
libcpprest.so.2.10:_ZNK7utility8datetime9to_stringB5cxx11ENS0_11date_formatE
libcpprest.so.2.10:_close_fsb
libcpprest.so.2.10:_close_fsb_nolock
libcpprest.so.2.10:_get_size
libcpprest.so.2.10:_getn_fsb
libcpprest.so.2.10:_open_fsb_str
libcpprest.so.2.10:_putn_fsb
libcpprest.so.2.10:_seekrdpos_fsb
libcpprest.so.2.10:_seekrdtoend_fsb
libcpprest.so.2.10:_seekwrpos_fsb
libcpprest.so.2.10:_sync_fsb
